; Function Attrs: nofree norecurse nosync nounwind memory(readwrite, inaccessiblemem: none) uwtable
define internal void @wmapro_flush(ptr noundef readonly captures(none) %0) #2 {
  %2 = getelementptr inbounds nuw i8, ptr %0, i64 32
  %3 = load ptr, ptr %2, align 8, !tbaa !4
  %4 = getelementptr inbounds nuw i8, ptr %3, i64 68314
  %5 = load i8, ptr %4, align 2, !tbaa !40
  %6 = icmp sgt i8 %5, 0
  br i1 %6, label %.lr.ph.i, label %flush.exit

.lr.ph.i:                                         ; preds = %1
  %7 = getelementptr i8, ptr %3, i64 71600
  %8 = getelementptr inbounds nuw i8, ptr %3, i64 65848
  br label %9

9:                                                ; preds = %9, %.lr.ph.i
  %indvars.iv.i = phi i64 [ 0, %.lr.ph.i ], [ %indvars.iv.next.i, %9 ]
  %.idx.i = mul nuw nsw i64 %indvars.iv.i, 49584
  %10 = getelementptr i8, ptr %7, i64 %.idx.i
  %11 = load i16, ptr %8, align 8, !tbaa !27
  %12 = zext i16 %11 to i64
  %13 = shl nuw nsw i64 %12, 2
  tail call void @llvm.memset.p0.i64(ptr align 16 %10, i8 0, i64 %13, i1 false)
  %indvars.iv.next.i = add nuw nsw i64 %indvars.iv.i, 1
  %14 = load i8, ptr %4, align 2, !tbaa !40
  %15 = sext i8 %14 to i64
  %16 = icmp slt i64 %indvars.iv.next.i, %15
  br i1 %16, label %9, label %flush.exit, !llvm.loop !41

flush.exit:                                       ; preds = %9, %1
  %17 = getelementptr inbounds nuw i8, ptr %3, i64 68260
  store i8 1, ptr %17, align 4, !tbaa !39
  %18 = getelementptr inbounds nuw i8, ptr %3, i64 68311
  store i8 0, ptr %18, align 1, !tbaa !43
  %19 = getelementptr inbounds nuw i8, ptr %3, i64 68262
  store i8 0, ptr %19, align 2, !tbaa !44
  %20 = getelementptr inbounds nuw i8, ptr %3, i64 68309
  store i8 1, ptr %20, align 1, !tbaa !45
  ret void
}